	.file	"example-target.c"
	.section	.gnu.offload_lto_.inline.730a9d3a3cbd9f26,"e",@progbits
	.string	"x\234cc``\260e@"
	.string	"&\006\006\245\243\f,\fL\026\033\356\261\202h\260 7\214`d\020\222\0022\305\016\354f\204I\262\3621"
	.string	"\231\f\023\374\030\030"
	.ascii	"\323\273\005\332"
	.text
	.section	.gnu.offload_lto_vecaddgpu._omp_fn.1.730a9d3a3cbd9f26,"e",@progbits
	.string	"x\234\315V\335O\034U\024\277g\356\314\316.\260\313g)\245\013\005*\326V\013\305\230F\215&\375\033\364\311\247\206Vb\232X\254f\037|c\370\246\224\007ha\255\233Mm\025,\2516\200(\237\005\226/\371*\213\b\266Pk[\241\264\026)\361\203Ti\n\365\234;\303fa\367\001\342\203Nr\316\3569\363;\277s\356\234s\347\216\2111\226\036\312\330\353\370\373\026\n33\220\030\212\244\366E3M\342W_e\232\314%\231\341\217\t\225$\203R\356E\204\")d\232\304\r"
	.ascii	"\fU\201\213;\300r$.+&\025r\b\243_e\274\222CO\361\275Vi\357E\r"
	.ascii	"/\317G\217_\312\325\n\343\334\2341'\3271P\007{\021\345j_\032"
	.ascii	"VNq7\0070\243\331\274\370E\263\225L\t<\f\355\277\237\336\350"
	.ascii	"Qy\f\320\377\301\251\261O`O\215V^\244y\312s\245\022Dq\370\n8"
	.ascii	"2B\003\330\241"
	.string	"\036\354\314\315e\006\215\260\207\360\343\005\365n\256S\313h\376>\352\232\265\351\324IhV\235\035\270bI\375L\224\267\332\250\\\252\365\024$\271\271B\365\3017\310\3665\262\321\205\320\242\321\245[2A\3634O\337\205<\310\353\313E\250\211\371'\016\002-\357\226J\362\017\271\271\372\257\200\376u.}Z\by\325\232\264\211:\3278\377\203*\237\\\370\277V\331\3261\325\036\306\223\3044\325:\033\356\312F\305\213\023\274B\357\277\031z\364\201\332P\264\273\350\322\034\347\317\210\310\325\341\2363\026#\235\267\327zZ\363\234\325d\\\003\364\255\237E#\364NY\323e+\177V\204~|\255\277I1B'k$M\037$\3706h\240\367bMe\b\177N\004~^r.w-g_\265\021h\201\301\240\201+Z\245\323\306\367\211\300\345\311\352\026\353\3322\337\250\320\214U\016\007]\345L\303j\225\325$\303\b\244\302\020\312"
	.ascii	"J?J/J7\212\007\245\013\245\023\245\003\345\nJ;J\033J+J\013J3"
	.ascii	"J\023\244\352\373\034\256\202\211\341\353\"^\320\f\030\264#:"
	.ascii	"%m\367\271\207\275f\376\202\250t\342\257\352\353R\220\206\214"
	.ascii	"\006\226\n^\021]1;Z\035\246Gh\025\265\207\004<`\342`l\013\330"
	.ascii	"\357\004\266\264\245\343M\236!\212*\357\274\335o6\212*\351\226"
	.ascii	"\006\251\321f\030\017R\322\367\"\364\362\303\3374\340\007El\351"
	.ascii	"\227\245\236\260\200\330\211 \261\223[(\361\207-`\257m\001{]"
	.ascii	"`kFz;m\3745Q\177\217\273k\310f\324\377h\226\373fg*\310\n\246"
	.ascii	"\267>!u\247\025\217\266\372\264X\323\332\302\023p{ \265D\212"
	.ascii	"\0136\025\3505\216\007\024\016\216\205\321\350\2040\032\236P"
	.ascii	"F\343\023F@+)\033\251pR\021\244\"IE\221\212&\025Cj\033\251XR"
	.ascii	"\333\005u\034\376Uw"
	.string	"\220\212Ge\332\211J\241\223CM \225H\276]\344K\"3\231T\n\371v\223/U00V\"N\261\223\034\217O>\017ym\026\232t\027\247#\314Y\3303\246\236\022\207\023=\305\306\231\351\0258\017\347r\265\b7\017qq\025n\320C\303;\3757\317\274\234\276\237\366\377\217\b\250\022\214p\023\322\231\037\241e\223\f?\t\006:\230\341\326z\206\220M2\334\026\f\0221\334Y\317\020\272)\0063\374,\030\304\266\237\321\031\234\026\277\227\n=7\361>\360\177\323x\3119KN\270K\271\3020\235\036\251\333Vt\261\005\340\314\305m\030\226\377\270\353O[\316\212\206_\022\241NZ.\314A\016\366e\r\023\036\200\241\357\233{\006f\036\362\353M\210\212\020\2746\262[\310\2164\3549(\360\n\026t1\275\277\\\3647\337E\260\030\027~\256\360p\ns\222\275M\270$\237\035+\\@4\323\\\277\037K,\217"
	.ascii	"\303\242UJ,\241!\271x\024\031\221\022%\220\365\001r\002z\266"
	.ascii	"c\214\310\252\350\316?\212W\356\253\372s\210sa)T"
	.string	"H\021\350\216\035\350\363\377\306QA\206\373\330\022\304\270\3270\3618?\210\244\347\371\244\324\360\355\304\240\272\205\326e\361\221e\022\023:^\266\254YEo5\215>\2010\020~\241\356\302\003\354(\023\205<P\364p\373\306:\022\320\027\2208\021w\002\336Z\227xW\320L\211F\246y_\246\223\\\307'm\314\224\214\276\200L).\232\306d\321\203\242V\243\310\335\270LL(\346h\310N>\377mi\021\213\036.k\234\265\030\245\234?\302D1)\360\253(f\001\213A\026_cS\261\024x\336\356\233\217T_c96M&\217Bm\303)\346\213\364E\255\317\216\252w\321\201\367\243`\237\335G\027\215\203@t\364\026\301\021F|d\326\207\231\307O\274\233\265\337\221\371\301;Y\216\264\243,4\355\275\343'\016\277\235\351\310<|\214g\247\035\204#\220\tG![\316N\3138 \277\237\226\361\212\342p\244\275x"
	.ascii	"\216\375\003\304]F\236"
	.text
	.section	.gnu.offload_lto_vecaddgpu._omp_fn.0.730a9d3a3cbd9f26,"e",@progbits
	.string	"x\234\215U\335O\034U\024\277g\356|\354,\273\313bI\364aM\210q\2555-\330\250\t\361\311\277\301\177\240Y+1&\366#\206\007_\232\275K\371\330\nF\312\307j7\223jR\260\215\215BE\201m\205\016\013T\240e\261-\245_k\305\022\033\245H\242\351\003<\260\365\234;\263vY\250\331I\356\2359\347\376\316\357\234{\316\271wt\306X\322`\354M|\357\306\301\236aP\301p\200\212\263\n\301\366\f\276\203`\342l\002 "
	.string	"X\264B\r\232\020\2056\336\305!\335\362 \245\354:-\360\261?[{=&\232\236\2638c\t\316\344\003}\260\013Q\311\013\217f\264Vnq"
	.string	"\017\212C\253g\207\374$*`3\224\327\036\337I\033\274\022\350{\352\326\334\027\260\263W\2647\013\273=\246\304\021\305\341;\340\310\b\347 \004\375\020b\026W\031\f\300N\302\3775\224\315\004\302\247\204h\020\366\352)\363\3233v\254\312\342\032E"
	.ascii	"\257\205\340\325\220\214\003\201W\033\373-\356\304\240\242\370"
	.ascii	"\367lr)\340\304P\205bk*;\352\343U2\204\207\303\243#*Q\342\236"
	.ascii	"\342c\312\224P-\256\303\220\023\303 \306\360\003\374\307j5\177"
	.ascii	"\375;\347/J\273\334L\272\323tC\311\214\373;\204\3759\231\032"
	.ascii	"\220\332\034\276k\272\3306\370\215\237\277$MO,L\016j\256\351"
	.ascii	"|\257\"&h\023\006\\\330\3260s\272\267\313\313_\226\206_\305O"
	.ascii	"\306\362>'z\\C\017\214lk\270!\272\022\001\376\2124\\\237\357"
	.ascii	"\031\366\273\233\\}\373\270\260\033\253h\227\027\267\335\345"
	.ascii	"\375s\271n\277\256\202\ra\030\305\361#\216\3638\206q|\017a\247"
	.ascii	"\3340\006:<\001K\031\265i\3242V\216\013\315\263\217\356\251n"
	.ascii	"\254\017\256\363\2163N~LV\034*\214C\270\b\337>\246\304\217\276"
	.ascii	"eq\357V\360\204\004\037_\232\355\361\025\027\215\025\357\005"
	.ascii	"&1b\373\251\354\352V\366K\316VK7\370\311\311O\351\006SnR\335"
	.ascii	"d\026\366&\310\336\374\366\217\213\226\327iU\241\240|\266\357"
	.ascii	"\312'\032\337-\3138\336\324t\223\352o\343\266\227;\0054\310\006"
	.ascii	"(\203\313N\035g\320\321t\336\321\025I^x`\326lE\226\240\370\270"
	.ascii	"\300\254\204\256\347.\247\362]\231\317\251okN3\020\356\353\320"
	.ascii	"l\221{\334\"\304\307\345\317*@\207\223\34315U\234\274\032N\272"
	.ascii	"\316(\357\006\235]\017\243\214\232\364\351e\224\2532\372\364"
	.ascii	"1\312\202\237\260\001\234\264\0354U2\362\310\342\362:\211s\272"
	.ascii	"\232\216a\016\031_\206\206\363&uX\222\3235\224hJ\317\031\255"
	.ascii	"\362\256\240\254\f\334\277\275\001_\302\311\230\bZ\334\237\304"
	.ascii	"\304\315Q\260\2702\231\355\254\255\331\203\221\301\317\b\350"
	.ascii	"\226\274p\025j\030\022\376\323\002\016\243\212\244\233\024\032"
	.ascii	"\352H\221peR\261\202\020\214\222|\252pM\372\224\327\350u\307"
	.ascii	"g\236\321\203$\205\214f\211\214\363\222Q!\306\033\233\031\275"
	.ascii	"HR\310XV\"\343\202d\224\007\372\346fF\037\222H\371\317\221.W"
	.ascii	"\205\034:\252\216\366\3473\025@\035\3354\013\017'\200\352\241"
	.ascii	"\203\360\300-tBv\323\317\323m\200\313K\215\326\200I\356\fj\312"
	.ascii	"n\252(\203\333P\203y\220@\363)8\215pw\b\347\375_\234N\270\273"
	.ascii	"\204\363m\217\323\035\234A\270,\341\310\342\030\017\242\210\370"
	.ascii	"\\3\220A\222\357\300\r\345\033A**Q\307V\300\2209K\245V\356\032"
	.ascii	"\321\r\341\261x AU\205_ Z\264P\236\240\342\300=\210\322op\271"
	.ascii	"\355\205\350\021\213\007\311;j\177\205(R\342B\337Jj]\376\020"
	.ascii	"}\300`\021B\026u:\306c\312NOg\245w\367\374\236X\264;\264\332"
	.ascii	"A\021\007<\347\f~\203Z\266\n\212\363\273\215\313\336b\254\242"
	.ascii	"\356\243\310\201\303\037\324\355\251\217|\370^]}\365~VV}\350"
	.ascii	"\300\341}\357F\352#\373\336\347\007\253\337\200w \002\373\341"
	.ascii	"`\340\211\376P\365\336\275\377\002\013\250F\346"
	.text
	.section	.gnu.offload_lto_.symbol_nodes.730a9d3a3cbd9f26,"e",@progbits
	.string	"x\234cc``("
	.string	"b\006&\256z\006\206\t\347\030\030\200\324\216\205\007\033\330\201B\234\365\214hB\214<\365L`!\006\206\206\006\007 \237\273\236\031\205\317[\317\202\314g\006\302\307\017\377123014\267\275\221gfdax\334\365F\236\001"
	.ascii	"\006B\033r"
	.text
	.section	.gnu.offload_lto_.refs.730a9d3a3cbd9f26,"e",@progbits
	.string	"x\234cc```\003bFF&\006a\006"
	.string	""
	.string	"\327"
	.ascii	"$"
	.text
	.section	.gnu.offload_lto_.offload_table.730a9d3a3cbd9f26,"e",@progbits
	.string	"x\234cc```\006bFF\006"
	.string	""
	.string	"g"
	.ascii	"\f"
	.text
	.section	.gnu.offload_lto_.decls.730a9d3a3cbd9f26,"e",@progbits
	.ascii	"x\234\225V]LTG\024\276gg\227]\326]@\260\326\007\232\020C\"i\322"
	.ascii	"\255\244/6\366I\037|\301\332`\372\320h\262Ya\265\232e!\270\264"
	.ascii	"\366\245\031\026\255\244K\003(Z\245`\211\212\030EAD\250\250x"
	.ascii	"A\360\027\374\003\305_@\020\021P\344OT\220\32033\367\262\273"
	.ascii	"\3744\351$\337\356\2343\337\234s\346\314w\357n\200$I\177\007"
	.ascii	"J\322J"
	.string	"\220\244o\020\2238\b\372\316J\336\241CT \252\020\227\021\r\210\007\322\314\221\200\373\315\370\275\036\021\212X\200\350E\254C\254F\304 ~@\254E\364!:\021\257\020\365\b-\242\013\361\002\321\215x\216 J\336\006%\357\364\221\002\"\217o\276Q%\337{%O\214\222+\026aUr.A\214 >\"\356!&\020-\b\003b\b\321\217\030F\f\316QS\225r\376\212Yj\312!PW\364\246\314\330\006O\261:\t\330\300\317i,fO\252\003$\225\240\001uQ\260\246o\343k \240\221\374\270\352\2627\252\317\022\250e\360\222\224\255\352\016\020Q@M\357S\027L\305\207\031E\363` \301\3142\205I\224n\214]\031\323\266C+\260\371#\271\273SO4|\336\357\036\356\r\"\013\371\374\302\303\313\325\001Z\215\004e@\304\256\223\305\343\245F\364H\260\316\004[\264\3145\276\247\270<x\321^\212c \225\206"
	.ascii	"\254_\b_\205\303\322p$\235\201E\370Y\016Z\261\273>#k<`q\001\225"
	.ascii	"e*\337*\f\316? \3234JS\265\214\007\247x\0168\rZ1\205\022h\303"
	.ascii	"sT\300b\334\231\231_\335\257'\313yUo\207\376<\034L\326\360\371"
	.ascii	"\265\253\273\312M\254\302\177\324\n\377h\337?nVrt\f\203;\203"
	.ascii	"\322\355!<A\245Hp\026\023T\372$\250\342\tRw\337\350\b\"v\036"
	.ascii	"\364\204{\274\336@\266\361\371P\353\223\243<\301y5AcI\217'\200"
	.ascii	"\374\312W\313\373v\377\245c\253\325\270\n\027\2007\2444U.2\223"
	.ascii	"4\340\214\332\307]\335z\306\220\031\343\242`df\234\256\t$\036"
	.ascii	"\301\310*\354h\013\260\024S1\f\347u\022\324\362\\<\333\376\374"
	.ascii	"+\236@R(\250{N\365\365\030|[\275\3268\325\352z\336\352-J\247"
	.ascii	"K\212\344\001\023va\240\200\026d\322\025\251\024\333p\2120\022"
	.ascii	"\324\001\201K`Ar\rv\342\234H\005\227y\027\236\326\347\0345\221"
	.ascii	"Z\230\343\350\376\307\275*\016\343\177\302k\302Y\340\031\272"
	.ascii	"n \367E\240]\305\023\203\323\212\221\225bnL\025s\035\213\271"
	.ascii	"\242\024\323\300\213y2:y<\210\214\210\030\267w\034\312$j\026"
	.ascii	"^\314\356\373{\262\203\211[\250\326\253\313%FE\227\317\212\272"
	.ascii	"RT\317mQU\207\347hO\240\252\336;\302\227{n\344\272\316C \324"
	.ascii	"\b\0064+\373\217W\232\321\\`\004\231-O~\310Zn\372\235R7-p\323"
	.ascii	"\371\251\321\\I\315\020\016M\300\272~\017L\312E5\036\030\033"
	.ascii	"\324\363\330\350\203\273\"8\335\321\234\017s<\033-\374\302\356"
	.ascii	"\253\317\206\247\357\3665\r6\251\335\247I\017\tc\301\255\251"
	.ascii	"&\335\304&5*Mz\300\233tw\240!\177\236(?\004\315;\333K\363\210"
	.ascii	"0\265h\0166\346v\006\211\323D\2409As\366\006\221\\\321\262\274"
	.ascii	"\337\216u\021\222'\214\366\214\212\023fr@\0307\213\ns\214\244"
	.ascii	"@\030\223U\371-"
	.string	"frP\030j\274P\021\357\344\313\213yF\021\236jrH@IY\357\347\020\026\211#*\233\322t\232\205\347\306SB\007\366\353\031\366\013^B\024tB\030V\337\r\221\360\002\321\205x\016\221\\\356\007Y\237\344\376\330l*\327\021\246\355'xp\244\303c\334\377\210\355\177\310\233\336\314>\031\333M\345\233\227\314\273\250\274o\031\304\230\360\315.\350\352\365(\364h/\273\271PC\353j\b#\267N'\1779=t\335\341)r\333\254d\036\370\b\276_\260\350&B\013\f\234\323\256<\274\342Z\337\324^\\o\366\370\350\3077\214\004=`V\210\257\207kZ@e\272\347dB/\230\221}\254\243\354\021\250\272\344\354\325\363|\3101\\\225\320\007&\366:\333\373zP\347\247\341z?\r\277\022\032f\337\310~\227=v\020H)\277\357\200c7Z\237\006Cd\024\273S\321\224\216C\242)\353L\022\f\374WG(\325"
	.ascii	"g\274\366\366cvQ\274AQ\fpQ\364\243\030\206\021\203\210!\257("
	.ascii	"0m\026\244\247\351g&\235q\301\375\261B\r\261&.\236Y\310\2767"
	.ascii	"\374\242\211\b\372\354\247\021T\354\311hi\372N]\230R}\372\377"
	.ascii	"\251\236=@-iCZ?\t\214\370]\354\333)\t\224=\223\337\233\375$0"
	.ascii	"+\023F\271\004\032\353\233\366\351I5\277(\355\370\333\017\017"
	.ascii	"\202!0\034\220\fQ;Y\210\201\324\254\020\374y\023\257\033\030"
	.ascii	"\3072\337\003\376\241\204\017H\031\303x\271\324\300=\271x\"|"
	.ascii	"5\261\351\021\365GHb&\274\363\336\034\2631\347\221[\236\032\177"
	.ascii	")\265\370I\351\243\"\245\217\\J\243\031\203;\365~l\177IO(l\366"
	.ascii	"\035\366\223=\316\026\037\277))\305bMLH\262ntZ\242Cq\022\021"
	.ascii	"o\217s\330\222\355\021.[\362&\273k\276}\233-!\311a\377B\230\226"
	.ascii	"\270\3316.\375\204m\024\214\b\273\323\225\374KR\342f\247\213"
	.ascii	"\205\263\242\313\352\3721\331n\213\267:S\022tq\211\316\255.\255"
	.ascii	"\303n\333\250w&\242?\361\347\220\351\031\f\253\276\375>bet\264"
	.ascii	"\024n\265nH\331\354pmvZgF\nS]8W\334[?\233\271\301g\325\274j\315"
	.ascii	"\352\357\254I\266d\233\303aw|\352\345\372\371\301\t\033\300\006"
	.ascii	"qf\013\013\021os\331\254[-_\373X.\3132\235uEb\242\343_\221\006"
	.ascii	">x"
	.text
	.section	.gnu.offload_lto_.symtab.730a9d3a3cbd9f26,"e",@progbits
	.text
	.section	.gnu.offload_lto_.opts,"e",@progbits
	.string	"'-fmath-errno' '-fsigned-zeros' '-ftrapping-math' '-fno-trapv' '-fno-strict-overflow' '-fno-openacc' '-foffload-abi=lp64' '-fopenmp' '-foffload=nvptx-none'"
	.text
	.section	.gnu.offload_lto_.mode_table.730a9d3a3cbd9f26,"e",@progbits
	.string	"x\234cc``P\006bY \356?\322\320\321\260\247C`bK\323\202\206#\035\001\223ZZ\0164\234\350\230\300\274j\022P`E\347\005f+\346@O\006\346` v\361d\340\311LMM\215/\316\314K\317I\005\n\2721"
	.string	""
	.ascii	"\332[\031\217"
	.text
	.comm	h_a,8,8
	.comm	h_b,8,8
	.comm	h_c,8,8
	.globl	n
	.bss
	.align 4
	.type	n, @object
	.size	n, 4
n:
	.zero	4
	.text
	.globl	vecaddgpu
	.type	vecaddgpu, @function
vecaddgpu:
.LFB2:
	.cfi_startproc
	pushq	%rbp
	.cfi_def_cfa_offset 16
	.cfi_offset 6, -16
	movq	%rsp, %rbp
	.cfi_def_cfa_register 6
	subq	$208, %rsp
	movq	%rdi, -184(%rbp)
	movq	%rsi, -192(%rbp)
	movq	%rdx, -200(%rbp)
	movl	n(%rip), %eax
	cmpl	$1024, %eax
	setg	%dil
	movl	n(%rip), %eax
	cltq
	salq	$2, %rax
	movl	n(%rip), %edx
	movslq	%edx, %rdx
	leaq	0(,%rdx,4), %rcx
	movl	n(%rip), %edx
	movslq	%edx, %rdx
	salq	$2, %rdx
	movq	-184(%rbp), %rsi
	movq	%rsi, -64(%rbp)
	movq	-200(%rbp), %rsi
	movq	%rsi, -56(%rbp)
	movq	-192(%rbp), %rsi
	movq	%rsi, -48(%rbp)
	movq	%rax, -96(%rbp)
	movq	%rcx, -88(%rbp)
	movq	%rdx, -80(%rbp)
	cmpq	$1, %rax
	sbbl	%eax, %eax
	andl	$13, %eax
	addw	$514, %ax
	movw	%ax, -102(%rbp)
	cmpq	$1, %rcx
	sbbl	%eax, %eax
	andl	$14, %eax
	addw	$513, %ax
	movw	%ax, -100(%rbp)
	cmpq	$1, %rdx
	sbbl	%eax, %eax
	andl	$14, %eax
	addw	$513, %ax
	movw	%ax, -98(%rbp)
	testb	%dil, %dil
	je	.L2
	movl	$-1, %edi
	jmp	.L3
.L2:
	movl	$-2, %edi
.L3:
	leaq	-102(%rbp), %rcx
	leaq	-96(%rbp), %rdx
	leaq	-64(%rbp), %rax
	movq	%rcx, %r8
	movq	%rdx, %rcx
	movq	%rax, %rdx
	movl	$3, %esi
	call	GOMP_target_data_ext
	movl	n(%rip), %eax
	cmpl	$1024, %eax
	setg	%dl
	movq	-200(%rbp), %rax
	movq	%rax, -144(%rbp)
	movq	-192(%rbp), %rax
	movq	%rax, -136(%rbp)
	movq	-184(%rbp), %rax
	movq	%rax, -128(%rbp)
	movl	n(%rip), %eax
	cltq
	movq	%rax, -120(%rbp)
	testb	%dl, %dl
	je	.L4
	movl	$-1, %edi
	jmp	.L5
.L4:
	movl	$-2, %edi
.L5:
	movq	$65792, -32(%rbp)
	movq	$512, -24(%rbp)
	movq	$0, -16(%rbp)
	leaq	-144(%rbp), %rax
	subq	$8, %rsp
	leaq	-32(%rbp), %rdx
	pushq	%rdx
	pushq	$0
	pushq	$0
	movl	$.omp_data_kinds.14.3661, %r9d
	movl	$.omp_data_sizes.13.3660, %r8d
	movq	%rax, %rcx
	movl	$4, %edx
	movl	$vecaddgpu._omp_fn.0, %esi
	call	GOMP_target_ext
	addq	$32, %rsp
	call	GOMP_target_end_data
	nop
	leave
	.cfi_def_cfa 7, 8
	ret
	.cfi_endproc
.LFE2:
	.size	vecaddgpu, .-vecaddgpu
	.section	.rodata
.LC0:
	.string	"Inicializando os arrays.\n"
	.text
	.globl	init_array
	.type	init_array, @function
init_array:
.LFB3:
	.cfi_startproc
	pushq	%rbp
	.cfi_def_cfa_offset 16
	.cfi_offset 6, -16
	movq	%rsp, %rbp
	.cfi_def_cfa_register 6
	subq	$16, %rsp
	movq	stdout(%rip), %rax
	movq	%rax, %rcx
	movl	$25, %edx
	movl	$1, %esi
	movl	$.LC0, %edi
	call	fwrite
	movl	$0, -4(%rbp)
	jmp	.L7
.L8:
	movq	h_a(%rip), %rax
	movl	-4(%rbp), %edx
	movslq	%edx, %rdx
	salq	$2, %rdx
	addq	%rdx, %rax
	movss	.LC1(%rip), %xmm0
	movss	%xmm0, (%rax)
	movq	h_b(%rip), %rax
	movl	-4(%rbp), %edx
	movslq	%edx, %rdx
	salq	$2, %rdx
	addq	%rdx, %rax
	movss	.LC1(%rip), %xmm0
	movss	%xmm0, (%rax)
	addl	$1, -4(%rbp)
.L7:
	movl	n(%rip), %eax
	cmpl	%eax, -4(%rbp)
	jl	.L8
	nop
	leave
	.cfi_def_cfa 7, 8
	ret
	.cfi_endproc
.LFE3:
	.size	init_array, .-init_array
	.globl	main
	.type	main, @function
main:
.LFB4:
	.cfi_startproc
	pushq	%rbp
	.cfi_def_cfa_offset 16
	.cfi_offset 6, -16
	movq	%rsp, %rbp
	.cfi_def_cfa_register 6
	subq	$16, %rsp
	movl	%edi, -4(%rbp)
	movq	%rsi, -16(%rbp)
	movq	-16(%rbp), %rax
	addq	$8, %rax
	movq	(%rax), %rax
	movq	%rax, %rdi
	call	atoi
	movl	%eax, n(%rip)
	movl	n(%rip), %eax
	cltq
	salq	$2, %rax
	movq	%rax, %rdi
	call	malloc
	movq	%rax, h_a(%rip)
	movl	n(%rip), %eax
	cltq
	salq	$2, %rax
	movq	%rax, %rdi
	call	malloc
	movq	%rax, h_b(%rip)
	movl	n(%rip), %eax
	cltq
	salq	$2, %rax
	movq	%rax, %rdi
	call	malloc
	movq	%rax, h_c(%rip)
	movl	$0, %eax
	call	init_array
	movq	h_b(%rip), %rdx
	movq	h_a(%rip), %rcx
	movq	h_c(%rip), %rax
	movq	%rcx, %rsi
	movq	%rax, %rdi
	call	vecaddgpu
	movl	$0, %eax
	leave
	.cfi_def_cfa 7, 8
	ret
	.cfi_endproc
.LFE4:
	.size	main, .-main
	.type	vecaddgpu._omp_fn.0, @function
vecaddgpu._omp_fn.0:
.LFB5:
	.cfi_startproc
	pushq	%rbp
	.cfi_def_cfa_offset 16
	.cfi_offset 6, -16
	movq	%rsp, %rbp
	.cfi_def_cfa_register 6
	subq	$80, %rsp
	movq	%rdi, -72(%rbp)
	movq	-72(%rbp), %rax
	movq	24(%rax), %rax
	movl	%eax, -4(%rbp)
	movq	-72(%rbp), %rax
	movq	(%rax), %rax
	movq	%rax, -16(%rbp)
	movq	-72(%rbp), %rax
	movq	8(%rax), %rax
	movq	%rax, -24(%rbp)
	movq	-72(%rbp), %rax
	movq	16(%rax), %rax
	movq	%rax, -32(%rbp)
	movl	-4(%rbp), %eax
	cmpl	$1024, %eax
	setg	%dl
	movq	-16(%rbp), %rax
	movq	%rax, -48(%rbp)
	movq	-24(%rbp), %rax
	movq	%rax, -56(%rbp)
	movq	-32(%rbp), %rax
	movq	%rax, -64(%rbp)
	movl	-4(%rbp), %eax
	movl	%eax, -40(%rbp)
	movl	%edx, %eax
	xorl	$1, %eax
	movzbl	%al, %edx
	leaq	-64(%rbp), %rax
	movl	$0, %ecx
	movq	%rax, %rsi
	movl	$vecaddgpu._omp_fn.1, %edi
	call	GOMP_parallel
	leave
	.cfi_def_cfa 7, 8
	ret
	.cfi_endproc
.LFE5:
	.size	vecaddgpu._omp_fn.0, .-vecaddgpu._omp_fn.0
	.type	vecaddgpu._omp_fn.1, @function
vecaddgpu._omp_fn.1:
.LFB6:
	.cfi_startproc
	pushq	%rbp
	.cfi_def_cfa_offset 16
	.cfi_offset 6, -16
	movq	%rsp, %rbp
	.cfi_def_cfa_register 6
	pushq	%r12
	pushq	%rbx
	subq	$64, %rsp
	.cfi_offset 12, -24
	.cfi_offset 3, -32
	movq	%rdi, -72(%rbp)
	movq	-72(%rbp), %rax
	movq	16(%rax), %rax
	movq	%rax, -32(%rbp)
	movq	-72(%rbp), %rax
	movq	8(%rax), %rax
	movq	%rax, -40(%rbp)
	movq	-72(%rbp), %rax
	movq	(%rax), %rax
	movq	%rax, -48(%rbp)
	movq	-72(%rbp), %rax
	movl	24(%rax), %eax
	movl	%eax, -52(%rbp)
	movl	-52(%rbp), %ebx
	call	omp_get_num_threads
	movl	%eax, %r12d
	call	omp_get_thread_num
	movl	%eax, %esi
	movl	%ebx, %eax
	cltd
	idivl	%r12d
	movl	%eax, %ecx
	movl	%ebx, %eax
	cltd
	idivl	%r12d
	movl	%edx, %eax
	cmpl	%eax, %esi
	jl	.L13
.L16:
	imull	%ecx, %esi
	movl	%esi, %edx
	addl	%edx, %eax
	leal	(%rax,%rcx), %edx
	cmpl	%edx, %eax
	jge	.L12
	movl	%eax, -20(%rbp)
.L15:
	movl	-20(%rbp), %eax
	cltq
	leaq	0(,%rax,4), %rcx
	movq	-40(%rbp), %rax
	addq	%rcx, %rax
	movss	(%rax), %xmm1
	movl	-20(%rbp), %eax
	cltq
	leaq	0(,%rax,4), %rcx
	movq	-32(%rbp), %rax
	addq	%rcx, %rax
	movss	(%rax), %xmm0
	movl	-20(%rbp), %eax
	cltq
	leaq	0(,%rax,4), %rcx
	movq	-48(%rbp), %rax
	addq	%rcx, %rax
	addss	%xmm1, %xmm0
	movss	%xmm0, (%rax)
	addl	$1, -20(%rbp)
	cmpl	%edx, -20(%rbp)
	jl	.L15
	jmp	.L12
.L13:
	movl	$0, %eax
	addl	$1, %ecx
	jmp	.L16
.L12:
	addq	$64, %rsp
	popq	%rbx
	popq	%r12
	popq	%rbp
	.cfi_def_cfa 7, 8
	ret
	.cfi_endproc
.LFE6:
	.size	vecaddgpu._omp_fn.1, .-vecaddgpu._omp_fn.1
	.local	.omp_data_sizes.13.3660
	.comm	.omp_data_sizes.13.3660,32,32
	.data
	.align 8
	.type	.omp_data_kinds.14.3661, @object
	.size	.omp_data_kinds.14.3661, 8
.omp_data_kinds.14.3661:
	.value	15
	.value	15
	.value	15
	.value	525
	.section	.gnu.offload_vars,"aw",@progbits
	.align 8
	.type	.offload_var_table, @object
	.size	.offload_var_table, 0
.offload_var_table:
	.section	.gnu.offload_funcs,"aw",@progbits
	.align 8
	.type	.offload_func_table, @object
	.size	.offload_func_table, 8
.offload_func_table:
	.quad	vecaddgpu._omp_fn.0
	.section	.rodata
	.align 4
.LC1:
	.long	1056964608
	.comm	__gnu_lto_v1,1,1
	.ident	"GCC: (GNU) 7.2.0"
	.section	.note.GNU-stack,"",@progbits
