	.file	"example-target.c"
	.section	.gnu.offload_lto_.inline.f2070144af41e3f8,"e",@progbits
	.string	"x\234cc``\260e@"
	.string	"&\006\006\245\243\f,\fL\026\033\356\261\202h\260 7\214`d\020\222\0022\305\016\354f\204I\262\3621"
	.string	"\231\f\023\374\030\030"
	.ascii	"\323\273\005\332"
	.text
	.section	.gnu.offload_lto_vecaddgpu._omp_fn.1.f2070144af41e3f8,"e",@progbits
	.string	"x\234\315V\355STe\024\177\316}\356\335\313.\354\362\256\240\213.\fdV\342P\315\344\364\311\177\243O\016\032\3238\223f\315~\350\033\227\267eM\232\226\204\255\356\254\246\006\312X\r\030\306\213\232,\013( /\221D@\246\006bA\216\2751\026\005\3309\317\275\354,\354~\200\351C\335\231sv\317y~\347w\316}\316\271\317\275\026\306\330\270\215\261=\370\373\022\n\213c 1\024I\355Ne\232\304\007^d\232\314%\231\341\217\005\225$\203\342\033B\204\")dZ\304\002"
	.ascii	"\206\252\300\305\n\260b\211\313\212E\205b\302\030W\025\257\341"
	.ascii	"\020\252\274\337.\355<\247\341\025|o\361\371\022\255\"#\300\031"
	.ascii	"\363s\003\003\215\260\023Q\372\345\371~\345\030\017p\20084[\037"
	.ascii	"~\334j'S\202 C\373\317\307\223!\225\247\001\375\357\035\037\376"
	.ascii	"\020v\324k>\217\026\364\225H^Dq\370\f82\302\005pB\0238Y\200\313"
	.ascii	"\f\232a\007\341G\312\233\002\334\240\226\321\374uP\237v\030\324"
	.ascii	".4k\337\277~\305\232\367\221(\357\332E\345|C\260\334\025\340"
	.ascii	"\n\325\007\237#\333Ed\243\013\241\236\301\371\3332AK\265`\367"
	.ascii	"\351R(\355.A\250\205E&\216\001\365uJ\336\262\275\001\256\376"
	.ascii	"+`d\235\363g*\240\264N\223\326Q\347\n\347\177P\345\342\351\377"
	.ascii	"k\225KZ\215\337\301]b\232\026F\353\332\354f\305c\315\211\325"
	.ascii	"\232\350\177\034\204\214\201ZSt\300s~\206\363\034\021\271\334"
	.ascii	"\037:n5\323\335;+i\3064@\367\352I4\003\357V\265|j\347\271\"\360"
	.ascii	"\203\261\236\026\305\f\034\255\017\007^\213\0318t\256\276\306"
	.ascii	"\306\237\020\201g\275'KV2v\327\231\201V\350\215\0318ua\271\326"
	.ascii	"n\221\241\017\362\340:J\017J\027J'J\020\245\003\345*\312\027"
	.ascii	"(WP.\243\\BiGiCiEi\201<\343A\205~\2600|\3363\005E\217I\211\324"
	.ascii	"\230\250\254\353\304\337\361\374IQ\341;\276\361\276\004s7\037"
	.ascii	"\335\344\325\r\346n\336\210\336M\030\020\321\325\323\203uf\204"
	.ascii	"V\335\260W\300\243\306\005\0067\200\035\022\330\237\177:\341"
	.ascii	"\007\376\214\250\312\353\321}+=\366vJ\275\232L5\r\307\250\351"
	.ascii	"K\021\373\311\350\2353q\274@\304\376R\375\307\204-*v$F\354W\033"
	.ascii	"\250\361\346\006\260\243\033\300~-"
	.string	"\260\3657\272\256:\370\013\242\376P\240\243\317a\326\277<\315\303\363=\026\343\016\276\331\370x4\276\253\004\265\345\307\225\2326\231\230\225\007x\360\306I\244\270`S\201\016a|\275\340\324X\031\315\215\215\321\344\3043\232\235\004\002\332I9H%\222J\"\225L*\205T*\2514R\351\2446\t\326\315\370W\315 \225\211\312\262\005\225\262\225L:\367\325,\362m#\337v2]\244\262\311\227C\276\\\301\300\230W\274~\216r|\357\3619(\275d\245\t\3279\275{\374\025\241a\365\230x\253\320\0066OM,\301)8Y\242%\005\270M\347*\214\323~\341J\317\255\343{v\357\242\315\234@@\255`\204I\330\315\"\b\255\353b\260\300\267\202\201\336\250pk5\203m\235\f\337\t\006\211\030n\257f\210_'\303\035\301 \036\367\273\006\203\337\032q\220\320\276\211s \362t\031 \347\367\344\204)\312\225\200{\310\036"
	.string	"g:\267\323\331\360W\307\357\216\342%\r_\371\361~\272=\230\206b\354C\202\211qDa\350C\344\236\211\231\203\262&\013\242\022\005\257\235\3546\262\223L{\006\312\207\004\013\272\230\321O.\372Y\246\023,U\307\357\n\356\2400?\331i\302%\205\355t\341\002\242\231\340\306z:\261<\002\fKQ)\261\204\206\244\363d2\222$J \033\003\343\007\364l\302\030\221U1\234\277U\276=\253\032\373\260Y\307R\250\020\017\030\216\f\364E~\214\250 \303\f\266"
	.string	"1\201\025L\246N\255\311\240\235_|\313\364m\301\240\306\007\355\013\342k\310\"&r\244jA\263\213^j\032}\253` \334\247n\302\017\330A&\n\231U\214\360\255k\353p\242/*q\026\016*.\255J\274-f\246,3\323\217\341LG\271\201\337\2766\223\013}Q\231\262q\034qI\364\300\323n\026\231\203\267\211\t\305\304\3659\311\027\371\030Z\305M\367W5O[\315RN\355g\242\230l\230\025\305\314a1\310\022nl.\226\002O;\303\363\221\033n,\307\246\311\344Q\250m8\265\374!}\372\032\263\243\032]t\343z2<\345\f\323\245\340 \020\035\235\0328\302\210O.z\263\360\320\221W\213v\271\013\337x\245\310\235\177\200\305\347\277v\350\310\276\227\013\335\205\373\016\302a\330\017\205p\200\037\316\177N~=\277\240@q\273\363\013\236\205\203\377"
	.ascii	"\363\320*5"
	.text
	.section	.gnu.offload_lto_vecaddgpu._omp_fn.0.f2070144af41e3f8,"e",@progbits
	.string	"x\234\215U\337o\024U\024\276\337\334\331\231\235\355n\273-\306\370\260&\215qE\022iM\304\244\217>\370\177\220\025\033c\"BL\037|1;[\240]B\023K\177\254\262\214h\240\005\202\321\266V\272,(L\327\255\224b[\221Z\371Q\220\200\032\243\245\211\204\030j\354\3429wva\273E\262\223\334;\367\234\373\235\357\2349\347\334;\206\020\342US\210\227\351\375\002\r\321 P/h@\247YG\270{\206\336aX4["
	.string	"\001 \342\365z\330B\034]\262O\"\327\371[V\333p\304\246\307\375\340\237M\t{\327S\216\024\"%\205z0\204\r\204J\237\272;\345\333#\035\t\370I\314,}\232\t\261\250\301\025$\337\273\177%g\312'\300\353\311K\263\037c\375\240\335\335a\273\335\t-I(\211/ \211\021#\210`\030\021\341H]`\024\353\031\177;\2630S\033=d\333\355\266\373\367!\353\375\243n\242\321\221>\216"
	.ascii	"/E\360bD\305A\300\013;\207\035\351\305\240\223\370\327t\372V"
	.ascii	"\255\027C#\211+v_\252V6\252\020\226\347\006N\204\230\222\276"
	.ascii	"i~\264n\257\355\356$J\003\031/\2121\212\3428\036\360:\035\307"
	.ascii	"~\225\362\031eY\230\312\365Z\305`~9\254\331y\216\305Dvu\370E"
	.ascii	"\303\033]c\237\205\344\263\312p\337\374\304\230\257h87\370\300"
	.ascii	"\360\324#\rg\216\f\366\005\344s\312\360p\362@\242\3441?P4\364"
	.ascii	"\343\353G\032\336\034)\364\207\f\035\247\021\305W4N\3228A\343"
	.ascii	"KD\275\212\341\f\f<\004*\231\264.i\205\250\245\215\216\351\273"
	.ascii	"\327\365\242\273\245\213\262\347\250\373\241\255;\322\022"
	.string	"\225\3360\216h\005\276{\\K\356x\305\221\201\265\340\234\002\357\2755=\020,\346=9\256M2\263!*S\216o\274\250\377\207]_\313\236\367>\265z\203\t/?\325\033|K\006\247\275D\226\267\026Tk}\376\373\031'\340u\232\255\221\374\357\376k\373M\371\274*\337\300\301\256\214I\374.}\362\235^\033\355\252~58\347\325o\222\234\234-9\231R\344\345\375~\317\325T\372+\273\035\347\025t\271p>[j\252R>\203k\363\371\035\242C=>\327.\334\357\264\355cuOj\340\263%\351\224Y:M\001\037M\206!8\347&\037=\277\340lZ\274\f\b\316S\r/\203\2023\020\242\245\257\201\247u\202\235\211\244\272\b\222\222/\225\335\224:!\377@\373I\213\033+-\371\002I\355\312\315\232{\324)\347\204\214\336\274\274\202Op a\207\035\031JS\316\2469N\332\231X\350mi\336HAa\206"
	.ascii	"\375\212\027\263h\026Dx\247\023\036\243N\244\253\024>\322\261"
	.ascii	"\"U\224Y%\312B0\253\362\251\343{\345S]\200\027<\237%F?\221\224"
	.ascii	"3ZU2\376\240\0305f\274\270\2321@$\345\2145U2\316)Fu\216\177\\"
	.ascii	"\315\030$\022\222w\fw\336>\333\340\251\210\303\340{o\376\317"
	.ascii	"<8\375\006l?\346\211\223\315\316=\315g\236\266G\362\351\217$"
	.ascii	"\263\033\334~\375\\@\201\237\320L\306\nhU\342L\017\347c\334%"
	.ascii	"\306\371\037\2133\030w\231q\201\307\342L\306]a\034\365\224\330"
	.ascii	"-\303$\022\276\320\0016H\313\006\372\240R\335\225b\035\351\304"
	.ascii	"\"L\225\242lv\361\252\031_\261\375\216\254Mq\021q\025\361\212"
	.ascii	"\215\272\024\327\002\013\210\363Mt\360xB\217\277\347\3100\273"
	.ascii	"'\3655\304\211\223v\206\026\263\313\352\327\025\204\300uD\034"
	.ascii	"\356l\n\310R\235\235[P\356\213Gu\337\r\267\307\3272f'AGZ\340"
	.ascii	"g\264\210%h\336\2171\251zI\210\372\326wc[\267\277\325\272\261"
	.ascii	"-\366\316\033\255mM[DM\323\266\255\3337\277\036k\213m~\023o\343"
	.ascii	"5\304\260%\364P\267\255i\323\1777),\\"
	.text
	.section	.gnu.offload_lto_.symbol_nodes.f2070144af41e3f8,"e",@progbits
	.string	"x\234cc``("
	.string	"b\006&\356z\006\206\t\347\030\030\200\324\216\205\007\033\330\201B\\\365\214hB\214\274\365L`!\006\206\206\006\007 \237\247\236\031\205\317W\317\202\314g\006\302\303\017\37712301<\006\321\214,\f\207\273\336\3103"
	.string	""
	.ascii	"\r1\033\346"
	.text
	.section	.gnu.offload_lto_.refs.f2070144af41e3f8,"e",@progbits
	.string	"x\234cc```\003bFF&\006!\006"
	.string	""
	.string	"\325"
	.ascii	"#"
	.text
	.section	.gnu.offload_lto_.offload_table.f2070144af41e3f8,"e",@progbits
	.string	"x\234cc```\006bFF\006"
	.string	""
	.string	"g"
	.ascii	"\f"
	.text
	.section	.gnu.offload_lto_.decls.f2070144af41e3f8,"e",@progbits
	.string	"x\234\225V[PSW\024\275;'\220\020\023\202`\255\037t\206q\230\221\237\246\322\376t\306~\351\207?X;:\375\350\350L&B\264:!0\030Z\373\3239\304G\231\206\016\017\301*\005\233Z\021GPA)TP\270(AE\020\037\210\370\004A\344\245\274\245\0022t\337s\356%\t\217\316\364\314\254\344\354s\326\331{\237\265\367\275I\240 \b\177\004\t\302\006\020\204/\020\2638\b\256]\022\274#"
	.string	"Q\216\250D\324#\032\021m\302\302\021\217\347\r\370\275\035\021\212X\201\350GlClB\304 \276AlE\f \272\020\257\021\036\204\032\361\022\361\n\321\203\350E\0209n\243\034w\376H\006\036\3077\336\204\034\357\235\034'F\216\265\005a\226c\256A\214#\336#\036 f\020\017\021Z\304(b\f1\214\030Y\"\247J\371\376\345\213\344\224M\240\256p\350\202\256\035\236av\002H\003?\347\261${V\031 (\004\025(\233\2345\377\030\333\003\016\225\340\307U\266\275^}\266@I\203\245$\037UN"
	.string	"\367\002Jx\237\274`\316?,H\2329\003\001\026\246\311M\"\2531u}J\335\001\317A\232?\026{\2724D\305\346\203\316\261\376`\262\222\315\257<\252\257\016T\253\004\270"
	.string	"\204\237:W<]\242\303\025\001\266\351a\217ZZ\232\316).3\256:Bq\f\247\320\020\200\355+\341\263pX\033\216\244\277`\025~\226\201\232\237\366\244eL\007\256vSQ\244b\263\307\230\177\\\244\373)MQK<(e1\340\"\250\371\024\316C;\336\243\034V\343\311\364\374\352A\rY\307\262z;\372\353I#\331\314\3467od\225\351\245\f\377V2\374\245\343\330\264A\216\321?\006\3164J\017\204\260"
	.string	"\025<\300%\fP\341\023\240\222\005H9|\2533\230X\231\323\263\316i\217\226\354c\363\321\347OO\263"
	.string	"\227\225"
	.string	"M\347\373\\\201\344G\266[6p\370\267"
	.ascii	"i\267\032w\341\n0AJR\304B\003\331\017\214q\365Iw\217Fb\210\022"
	.ascii	"\243\2063\322\323.\326\006\021\027gd\024t\266\007\232\212)\037"
	.ascii	"\332\313\001\002\\e\261X\264c\371\327]A\244\200SsJ\007\372\264"
	.ascii	"\276Ro\325\315I\355aR\357\221\225>_(\016\353Q\205a7u\247\323"
	.ascii	"\365)\024e(%\022\t\352\200\30050!\271\026\225\250\342\241\240"
	.ascii	"\236\251\360\314\223}ZO\256\302\022W\367\277\356\r~\031\377\033"
	.ascii	"\336\344\213n\327h\203\226\264rGY\3053#\363\222\021\345dn\315"
	.ascii	"%\323\200\311\\\227\223id\311<\235\230-\n&\343\334\307\235\203"
	.ascii	"\177\246\023%\nK\346pkN\246\2218y\327z\373r\215N\356\313\027"
	.ascii	"\205\335\311\312\312\035\236U\247\353t_\220\322\275w\371Zn\325"
	.ascii	"xC\200\213@\250\016\264hV\f\026U\030\320\\\241\003Q\332\236\235"
	.ascii	"\314X\247\377\231R'u;\351\362\224h\326I-\020\016\367AR\375\001"
	.ascii	"\350\345B5\035\237\032\3210\337\270\006\367\270sz\260%\037\226"
	.ascii	"x6\036\262\202\265*\317\206k\340\316M\025"
	.string	"\212\324\341#\322#\"\261\240yN\244\333(R\223,R\033\023\351\336pc\3762\236~\b\232w\017\224\344\021n\252\321\034i\312\355\n\346\267\211@s\206f\037\t&\271\\\262\274Cg\272\t\311\343FGZ\371Y\0039\316\215\333\205\005\331:\342\346\2068zhVENpC\361\027\312\375\235\353\255\311\323q\367T\225M\002\033&S\267BXdTddd&\245\2514\003\357\215\267\204N\324\353\005\352\005\335\020\005]\020\206\331\367B$\364 ^!^B$k\367\023\222Nb\353Ec&\025\353\210\324\334O\361\346\310\207'\350\340\261\344\340\021S\275E\372\024N\341\223M\305\211\373\204\272\265\214\325!?6\334\225\023]]3dQ\361\350\347\020\243\307\327>w\245\324Nv\025\035>\307n)P\321\272Z\"\221\237\317'\177\342\r\313\311u'\347\310\355\213\222\231c\324\250\346Pz\263\306\340\362\351 _\256"
	.ascii	"}`\220;\250\354FV\3072\205\351\\\222\t\375`@\366\231\316\013"
	.ascii	"\217A\351L\306\336\264\314\207\034\303\372\022\006@/\275\320"
	.ascii	"\216\274\031\t\360\353b\217_\027\277\346],}#\273\262\252\264"
	.ascii	"MGJX\305\003sj\304*\035D\205aI#\271\340\203\\\360!\314\355\215"
	.ascii	"W\360\305\353=\210\365\036b\365\036\305:\217!\206\021#\336z\243"
	.ascii	"\222\031\220\272_\203\017\244\300\\.]\236\377\344\371\226\006"
	.ascii	"\033\210W}\213\2365\320\320\342\265\341d\274\r'/p\354Sr\024\245"
	.ascii	"\264(#(L\276d\352\377\271$\236\255\317\234)2\372\265\300\270"
	.ascii	"_a\337\316\265@mz\257\333\350\327\002\2132a\202\265@\223\347"
	.ascii	"\376Q\r\251f\205RO\277\235l3BP8 \031\242~\222"
	.string	"\\\f\247d\204\340\017\034\177\341\3004\246\371\016\360/%L\"e\n\375\345R-[\311\305\033\341\313I\232\236R~\206\004\311\204\177\274\005\226l\214y\252\331U\353\337J\017\375Z\351\275\334J\357Y+\375\376\262\365M\260\037\333\277\245gd\266\364\035\366\2355\326\022\027\267+1\331dN\210O4\357\264\233\242Cq\022\021g\215\265Y\222\254\021\016K\322.\253c\271u\237%>\321f\375\230\233\246\330\305\016\256\375@:\310\031\021V\273#\351\207\304\204\335v\207\344\316\214Kf\307\267IVK\234\331\236\034\037\020\233`\337\353P\333\254\226\235\032{\002\256'|\0372?\202v\343\227_Gl\210\216\026\302\315\346\035\311\273m\216\335v\363BOa\312\022\316\345\345\275\037-<\340\263k\330\270y\323W\346DK\222\305f\263\332>\364r\375\326\301\016;\300\002\261\006\223\344\"\316\342\260\230\367\232>\365\261\034\246\350"
	.ascii	"\363\372\204\004\333\277\355\035=;"
	.text
	.section	.gnu.offload_lto_.symtab.f2070144af41e3f8,"e",@progbits
	.text
	.section	.gnu.offload_lto_.opts,"e",@progbits
	.string	"'-fmath-errno' '-fsigned-zeros' '-ftrapping-math' '-fno-trapv' '-fno-strict-overflow' '-fno-openacc' '-foffload-abi=lp64' '-fopenmp' '-foffload=nvptx-none'"
	.text
	.section	.gnu.offload_lto_.mode_table.f2070144af41e3f8,"e",@progbits
	.string	"x\234cc``P\006bY \356?\322\320\321\260\247C`bK\323\202\206#\035\001\223ZZ\0164\234\350\230\300\274j\022P`E\347\005f+\346@O\006\346` v\361d\340\311LMM\215/\316\314K\317I\005\n\2721"
	.string	""
	.ascii	"\332[\031\217"
	.text
	.comm	h_a,4194304,32
	.comm	h_b,4194304,32
	.comm	h_c,4194304,32
	.globl	vecaddgpu
	.type	vecaddgpu, @function
vecaddgpu:
.LFB2:
	.cfi_startproc
	pushq	%rbp
	.cfi_def_cfa_offset 16
	.cfi_offset 6, -16
	movq	%rsp, %rbp
	.cfi_def_cfa_register 6
	subq	$208, %rsp
	movq	%rdi, -184(%rbp)
	movq	%rsi, -192(%rbp)
	movq	%rdx, -200(%rbp)
	movl	%ecx, -204(%rbp)
	movl	-204(%rbp), %eax
	cltq
	salq	$2, %rax
	movl	-204(%rbp), %edx
	movslq	%edx, %rdx
	leaq	0(,%rdx,4), %rcx
	movl	-204(%rbp), %edx
	movslq	%edx, %rdx
	salq	$2, %rdx
	movq	-184(%rbp), %rsi
	movq	%rsi, -64(%rbp)
	movq	-200(%rbp), %rsi
	movq	%rsi, -56(%rbp)
	movq	-192(%rbp), %rsi
	movq	%rsi, -48(%rbp)
	movq	%rax, -96(%rbp)
	movq	%rcx, -88(%rbp)
	movq	%rdx, -80(%rbp)
	cmpq	$1, %rax
	sbbl	%eax, %eax
	andl	$13, %eax
	addw	$514, %ax
	movw	%ax, -102(%rbp)
	cmpq	$1, %rcx
	sbbl	%eax, %eax
	andl	$14, %eax
	addw	$513, %ax
	movw	%ax, -100(%rbp)
	cmpq	$1, %rdx
	sbbl	%eax, %eax
	andl	$14, %eax
	addw	$513, %ax
	movw	%ax, -98(%rbp)
	leaq	-102(%rbp), %rcx
	leaq	-96(%rbp), %rdx
	leaq	-64(%rbp), %rax
	movq	%rcx, %r8
	movq	%rdx, %rcx
	movq	%rax, %rdx
	movl	$3, %esi
	movl	$-1, %edi
	call	GOMP_target_data_ext
	cmpl	$1024, -204(%rbp)
	setg	%dl
	movl	-204(%rbp), %eax
	cltq
	movq	%rax, -144(%rbp)
	movq	-200(%rbp), %rax
	movq	%rax, -136(%rbp)
	movq	-192(%rbp), %rax
	movq	%rax, -128(%rbp)
	movq	-184(%rbp), %rax
	movq	%rax, -120(%rbp)
	testb	%dl, %dl
	je	.L2
	movl	$-1, %edi
	jmp	.L3
.L2:
	movl	$-2, %edi
.L3:
	movq	$65792, -32(%rbp)
	movq	$512, -24(%rbp)
	movq	$0, -16(%rbp)
	leaq	-144(%rbp), %rax
	subq	$8, %rsp
	leaq	-32(%rbp), %rdx
	pushq	%rdx
	pushq	$0
	pushq	$0
	movl	$.omp_data_kinds.7.3671, %r9d
	movl	$.omp_data_sizes.6.3670, %r8d
	movq	%rax, %rcx
	movl	$4, %edx
	movl	$vecaddgpu._omp_fn.0, %esi
	call	GOMP_target_ext
	addq	$32, %rsp
	call	GOMP_target_end_data
	nop
	leave
	.cfi_def_cfa 7, 8
	ret
	.cfi_endproc
.LFE2:
	.size	vecaddgpu, .-vecaddgpu
	.section	.rodata
.LC0:
	.string	"Inicializando os arrays.\n"
	.text
	.globl	init_array
	.type	init_array, @function
init_array:
.LFB3:
	.cfi_startproc
	pushq	%rbp
	.cfi_def_cfa_offset 16
	.cfi_offset 6, -16
	movq	%rsp, %rbp
	.cfi_def_cfa_register 6
	subq	$16, %rsp
	movq	stdout(%rip), %rax
	movq	%rax, %rcx
	movl	$25, %edx
	movl	$1, %esi
	movl	$.LC0, %edi
	call	fwrite
	movl	$0, -4(%rbp)
	jmp	.L5
.L6:
	movl	-4(%rbp), %eax
	cltq
	movss	.LC1(%rip), %xmm0
	movss	%xmm0, h_a(,%rax,4)
	movl	-4(%rbp), %eax
	cltq
	movss	.LC1(%rip), %xmm0
	movss	%xmm0, h_b(,%rax,4)
	addl	$1, -4(%rbp)
.L5:
	cmpl	$1048575, -4(%rbp)
	jle	.L6
	nop
	leave
	.cfi_def_cfa 7, 8
	ret
	.cfi_endproc
.LFE3:
	.size	init_array, .-init_array
	.section	.rodata
.LC2:
	.string	"h_c[%07d]: %f\n"
	.text
	.globl	print_array
	.type	print_array, @function
print_array:
.LFB4:
	.cfi_startproc
	pushq	%rbp
	.cfi_def_cfa_offset 16
	.cfi_offset 6, -16
	movq	%rsp, %rbp
	.cfi_def_cfa_register 6
	subq	$16, %rsp
	movl	$0, -4(%rbp)
	jmp	.L8
.L9:
	movl	-4(%rbp), %eax
	cltq
	movss	h_c(,%rax,4), %xmm0
	cvtss2sd	%xmm0, %xmm0
	movq	stdout(%rip), %rax
	movl	-4(%rbp), %edx
	movl	$.LC2, %esi
	movq	%rax, %rdi
	movl	$1, %eax
	call	fprintf
	addl	$1, -4(%rbp)
.L8:
	cmpl	$1048575, -4(%rbp)
	jle	.L9
	nop
	leave
	.cfi_def_cfa 7, 8
	ret
	.cfi_endproc
.LFE4:
	.size	print_array, .-print_array
	.section	.rodata
.LC4:
	.string	"Verificando o resultado.\n"
.LC6:
	.string	"Resultado Final: (%f, %f)\n"
	.text
	.globl	check_result
	.type	check_result, @function
check_result:
.LFB5:
	.cfi_startproc
	pushq	%rbp
	.cfi_def_cfa_offset 16
	.cfi_offset 6, -16
	movq	%rsp, %rbp
	.cfi_def_cfa_register 6
	subq	$16, %rsp
	pxor	%xmm0, %xmm0
	movss	%xmm0, -8(%rbp)
	movq	stdout(%rip), %rax
	movq	%rax, %rcx
	movl	$25, %edx
	movl	$1, %esi
	movl	$.LC4, %edi
	call	fwrite
	movl	$0, -4(%rbp)
	jmp	.L11
.L12:
	movl	-4(%rbp), %eax
	cltq
	movss	h_c(,%rax,4), %xmm0
	movss	-8(%rbp), %xmm1
	addss	%xmm1, %xmm0
	movss	%xmm0, -8(%rbp)
	addl	$1, -4(%rbp)
.L11:
	cmpl	$1048575, -4(%rbp)
	jle	.L12
	movss	-8(%rbp), %xmm0
	movss	.LC5(%rip), %xmm1
	divss	%xmm1, %xmm0
	cvtss2sd	%xmm0, %xmm1
	cvtss2sd	-8(%rbp), %xmm0
	movq	stdout(%rip), %rax
	movl	$.LC6, %esi
	movq	%rax, %rdi
	movl	$2, %eax
	call	fprintf
	nop
	leave
	.cfi_def_cfa 7, 8
	ret
	.cfi_endproc
.LFE5:
	.size	check_result, .-check_result
	.globl	main
	.type	main, @function
main:
.LFB6:
	.cfi_startproc
	pushq	%rbp
	.cfi_def_cfa_offset 16
	.cfi_offset 6, -16
	movq	%rsp, %rbp
	.cfi_def_cfa_register 6
	subq	$16, %rsp
	movl	%edi, -4(%rbp)
	movq	%rsi, -16(%rbp)
	movl	$0, %eax
	call	init_array
	movl	$1048576, %ecx
	movl	$h_b, %edx
	movl	$h_a, %esi
	movl	$h_c, %edi
	call	vecaddgpu
	movl	$0, %eax
	call	check_result
	movl	$0, %eax
	leave
	.cfi_def_cfa 7, 8
	ret
	.cfi_endproc
.LFE6:
	.size	main, .-main
	.type	vecaddgpu._omp_fn.0, @function
vecaddgpu._omp_fn.0:
.LFB7:
	.cfi_startproc
	pushq	%rbp
	.cfi_def_cfa_offset 16
	.cfi_offset 6, -16
	movq	%rsp, %rbp
	.cfi_def_cfa_register 6
	subq	$80, %rsp
	movq	%rdi, -72(%rbp)
	movq	-72(%rbp), %rax
	movq	(%rax), %rax
	movl	%eax, -4(%rbp)
	movq	-72(%rbp), %rax
	movq	8(%rax), %rax
	movq	%rax, -16(%rbp)
	movq	-72(%rbp), %rax
	movq	16(%rax), %rax
	movq	%rax, -24(%rbp)
	movq	-72(%rbp), %rax
	movq	24(%rax), %rax
	movq	%rax, -32(%rbp)
	cmpl	$1024, -4(%rbp)
	setg	%dl
	movl	-4(%rbp), %eax
	movl	%eax, -40(%rbp)
	movq	-16(%rbp), %rax
	movq	%rax, -48(%rbp)
	movq	-24(%rbp), %rax
	movq	%rax, -56(%rbp)
	movq	-32(%rbp), %rax
	movq	%rax, -64(%rbp)
	movl	%edx, %eax
	xorl	$1, %eax
	movzbl	%al, %edx
	leaq	-64(%rbp), %rax
	movl	$0, %ecx
	movq	%rax, %rsi
	movl	$vecaddgpu._omp_fn.1, %edi
	call	GOMP_parallel
	leave
	.cfi_def_cfa 7, 8
	ret
	.cfi_endproc
.LFE7:
	.size	vecaddgpu._omp_fn.0, .-vecaddgpu._omp_fn.0
	.type	vecaddgpu._omp_fn.1, @function
vecaddgpu._omp_fn.1:
.LFB8:
	.cfi_startproc
	pushq	%rbp
	.cfi_def_cfa_offset 16
	.cfi_offset 6, -16
	movq	%rsp, %rbp
	.cfi_def_cfa_register 6
	pushq	%r12
	pushq	%rbx
	subq	$48, %rsp
	.cfi_offset 12, -24
	.cfi_offset 3, -32
	movq	%rdi, -56(%rbp)
	movq	-56(%rbp), %rax
	movl	24(%rax), %eax
	movl	%eax, -24(%rbp)
	movq	-56(%rbp), %rax
	movq	16(%rax), %rax
	movq	%rax, -32(%rbp)
	movq	-56(%rbp), %rax
	movq	8(%rax), %rax
	movq	%rax, -40(%rbp)
	movq	-56(%rbp), %rax
	movq	(%rax), %rax
	movq	%rax, -48(%rbp)
	movl	-24(%rbp), %ebx
	call	omp_get_num_threads
	movl	%eax, %r12d
	call	omp_get_thread_num
	movl	%eax, %esi
	movl	%ebx, %eax
	cltd
	idivl	%r12d
	movl	%eax, %ecx
	movl	%ebx, %eax
	cltd
	idivl	%r12d
	movl	%edx, %eax
	cmpl	%eax, %esi
	jl	.L17
.L20:
	imull	%ecx, %esi
	movl	%esi, %edx
	addl	%edx, %eax
	leal	(%rax,%rcx), %edx
	cmpl	%edx, %eax
	jge	.L16
	movl	%eax, -20(%rbp)
.L19:
	movl	-20(%rbp), %eax
	cltq
	leaq	0(,%rax,4), %rcx
	movq	-40(%rbp), %rax
	addq	%rcx, %rax
	movss	(%rax), %xmm1
	movl	-20(%rbp), %eax
	cltq
	leaq	0(,%rax,4), %rcx
	movq	-32(%rbp), %rax
	addq	%rcx, %rax
	movss	(%rax), %xmm0
	movl	-20(%rbp), %eax
	cltq
	leaq	0(,%rax,4), %rcx
	movq	-48(%rbp), %rax
	addq	%rcx, %rax
	addss	%xmm1, %xmm0
	movss	%xmm0, (%rax)
	addl	$1, -20(%rbp)
	cmpl	%edx, -20(%rbp)
	jl	.L19
	jmp	.L16
.L17:
	movl	$0, %eax
	addl	$1, %ecx
	jmp	.L20
.L16:
	addq	$48, %rsp
	popq	%rbx
	popq	%r12
	popq	%rbp
	.cfi_def_cfa 7, 8
	ret
	.cfi_endproc
.LFE8:
	.size	vecaddgpu._omp_fn.1, .-vecaddgpu._omp_fn.1
	.local	.omp_data_sizes.6.3670
	.comm	.omp_data_sizes.6.3670,32,32
	.data
	.align 8
	.type	.omp_data_kinds.7.3671, @object
	.size	.omp_data_kinds.7.3671, 8
.omp_data_kinds.7.3671:
	.value	525
	.value	15
	.value	15
	.value	15
	.section	.gnu.offload_vars,"aw",@progbits
	.align 8
	.type	.offload_var_table, @object
	.size	.offload_var_table, 0
.offload_var_table:
	.section	.gnu.offload_funcs,"aw",@progbits
	.align 8
	.type	.offload_func_table, @object
	.size	.offload_func_table, 8
.offload_func_table:
	.quad	vecaddgpu._omp_fn.0
	.section	.rodata
	.align 4
.LC1:
	.long	1056964608
	.align 4
.LC5:
	.long	1233125376
	.comm	__gnu_lto_v1,1,1
	.ident	"GCC: (GNU) 7.2.0"
	.section	.note.GNU-stack,"",@progbits
