	.file	"example-target.c"
	.section	.gnu.offload_lto_.profile.e9ef73599697469e,"e",@progbits
	.string	"x\234cc```\003bF\206\251L\355\214"
	.ascii	"\004\r\001-"
	.text
	.section	.gnu.offload_lto_.icf.e9ef73599697469e,"e",@progbits
	.string	"x\234cc```b@\006"
	.string	""
	.string	"\232"
	.ascii	"\t"
	.text
	.section	.gnu.offload_lto_.jmpfuncs.e9ef73599697469e,"e",@progbits
	.string	"x\234cc``\020e@"
	.string	"&\006FF\306\3729\314@&#\204\305\310\300"
	.string	""
	.ascii	"\033\215\002b"
	.text
	.section	.gnu.offload_lto_.inline.e9ef73599697469e,"e",@progbits
	.string	"x\234cc``8\315\200"
	.string	"L\f\f\n\367\031XX\030\024\030\031\230\017028"
	.string	"\251\006\b\345"
	.string	"&\031\270\024n\355`e`[ \317\304\300\370\202\235\205\211\201{\303s&\026\020\233\003,\302\001\"\004\300L\001\020\241"
	.string	"f*\200\r\347\206\021\214\n\202\222\f,\020\003\221\f\207\332t\200\221\213\343\200\035\262\035\314;\304\211\263\202\225\217\001h.\303\004?\006\006"
	.ascii	"\033\013\0352"
	.text
	.section	.gnu.offload_lto_.pureconst.e9ef73599697469e,"e",@progbits
	.string	"x\234cc```\003b&\006)\306\231\214"
	.string	"\002H"
	.ascii	"\304"
	.text
	.section	.gnu.offload_lto_vecaddgpu._omp_fn.1.e9ef73599697469e,"e",@progbits
	.string	"x\234\215U\335oTU\020?\277s\366~\354nw\267\237P\312\3264j\255\305"
	.ascii	"/>\370\250\177\tY\2601$\242\304\364\301'{\226-\245\225\032\253"
	.ascii	"\224Uo6H\"\205DcZ,\366\003\224\256K\213\264Hk\225\020h\372`\250"
	.ascii	"\230@\220\304\217\030j\350\2563\347\336n\266\001\223\336\344"
	.ascii	"\316=3\3477\277\231\235\231s\326\026Bh[\210v\372\276C/\302\002"
	.ascii	"r`^\210\264+\245\335\333&tD\261\254R\322\371x\007}\255\207\317"
	.ascii	"\220\315A\210A\bI\367\\\201\030\"\326r\2246]\337\374\212\005"
	.ascii	"\360W\2736\224O\006\321%\225\023r-\033]2$\220\007\212\245R)Q"
	.ascii	"^\b~\372\325\240B\341\310o\223\262\375\214\246'\377\321\243\027"
	.ascii	"\323\372pcN\t\221U\006\"0\214vBy\027\376\236\263\216\252\234"
	.ascii	"\002\\R\307\037|1\036cU\"/H\177XZ*8\252\036\274\276rs\341S\264"
	.ascii	"\r\351\201\036\235\037H\313^B)|\005E\2148\213$F\220\0249EI\215"
	.ascii	"\242\215\361\213\335#9\345S\207H\375\343\232\267\022\367\251"
	.ascii	"[H]\323\203\331\270j1\314\253\327OM\304Z?3\251\336\030M|\240"
	.ascii	"\363\335-9ea\314'\377\232\310\317\0219?\204\316\365|~G\251\247"
	.ascii	"\215gq\256p,\314\236\207t\376\327\323RO\247\311\321\306\304\306"
	.ascii	"\254\002\307_\372\307\276\214\251g\215\343'7f\306\254\300\361"
	.ascii	"\372P\331\361\374\023\035\347\317\f\rF\324s\306\361t\357\211"
	.ascii	"\364z\304\351S\201\243\203o\236\350x\373l\361x\314\016\341[\264"
	.ascii	"\342\002\275\223\364"
	.string	"\216\243\325o\002.\302\026\020\302b\223\331b\bA\311q\350\352\245\213q\365\274\211X\310M\315\306\203\352\024WT\271:S\217W\207\306\240u\370C+\257\213\245\367\265^J4?\005j\211%Y(\263\353\200\333\343\n\216I3JQ#\202\343F\005G\256b`\214E\234E\202E5\213\032\026\265,\352X\324\223p\033Xl!ao%\021n\344\3256^5\361j;\257\232ML!z\351\367.5\350\274\350S\222\026\231\274\270\207C\347\303\\\001O\361\334e\017\027\026\234\243f\242\370'\217\336\276\265\206\2238\221\326\003\372e\344T\304\243\022\177\307?\2226g\226\217\275\264{'W\240@\230\343f\236q\t\273+9\303\233%\2611mH\300$3\033I\"\233'\271lH$\223|\277\221$\272y\222+\206\304\214\306,\221\334\207\022\236\252\"H\346\337\251\277\342]k\232\016p4\313\251b\016]T\337\252"
	.ascii	"\023{\fC\231\340j\200\271\207\314\210M\2508\225\332\363\365\t"
	.ascii	"\326\023\201~\007\335\363\206\205Lf\212\372(\207\240I\031\217"
	.ascii	"\2215\036]\024*\306z\226\365ZOI\262\226\365:\263_\313L\267\224"
	.ascii	"\277_\307D\377\200\314\325&\266$EbG\322\004\226<\021\216X\216"
	.ascii	"\242\217\356\013\272\331\374\201\370\363\310{w\235\212S\303\243"
	.ascii	"c\016I\305Q\022\370\201\r\270\306\265\255\367(SN\262\007\276"
	.ascii	"\241\201l\2257\017]\244\230\247:\023&\267\216\331\342q\375\033"
	.ascii	"8\340\243w\003\333Vr\032\276?\271j\256>\333\214\340b\377\252"
	.ascii	"\216\231\236i}2\304\303L\256X\340\246\341Gj\224\317y\327\362"
	.ascii	"\t\032=\336\337H\272\355\177X\032\003\226\3052K\237\362=\232"
	.ascii	"h\\|\226L\266g2\240\336N\351\021\031Sgg\223l\253</\216Iv\256"
	.ascii	"\177t%\274\036f/L\230&\374d\302\374La\210\245\334\254f*\032^"
	.ascii	"Hr\263n*\277y\315~\263\024u\316a\204\313\375q\005\375%Q\203,"
	.ascii	"\177\026\036@\212`:l\361{\304\237\016CXM\355eBv\002\201\tW\323"
	.ascii	"\361v\352\300\301\327;vv\246\336z\255\243s\327>\021\335\365\346"
	.ascii	"\201\203{^Mu\246\366\354\307\033\330\213\024\366a\377\177x\362"
	.ascii	"\372\257"
	.text
	.section	.gnu.offload_lto_vecaddgpu._omp_fn.0.e9ef73599697469e,"e",@progbits
	.ascii	"x\234\215\223\313KUQ\024\306\367w\366=\017\265sMp\020\344\300"
	.ascii	"\211\210\003u\342\300I\321\270\177B.%\021$J8h\022g_\037y\303"
	.ascii	"\302\233\346\215\256\007\r\"\242\007\231\371\352j\345\351\246"
	.ascii	"\245\366p\332CA\fz!B\322\300\"\265\265\366)R\007\342\201\263"
	.ascii	"\317^{\377\370\326\267\326\336\307\022B\024F\204(\247\357Az!"
	.ascii	"\005\214\344\033!\342\216\001\360D9\020\236\001\017\027\344e"
	.ascii	"\211l\333\247\214QvS\321\023\\\371U\025W\255\007|)D\212^~\320"
	.ascii	"\2172\242\322\343?f\315v\351K\300\241pt\345\316\250\313\241\201"
	.ascii	"@P\274\266\371>k\313B\360|\372\355\\\037Jo\250\3449\025$\343"
	.ascii	"F\202(\211\007\220"
	.string	"\244\210\001\024\341>\212\204/#\002\203(e~i`\243\333\265\"aF\f\301\302\226E\216iu\230V\351C\033\337_\247?FC#\305\024\336\3732\341\347\206F\224A\361\357\236\205\036[\026k#\227Zg\332\335\222\353*\240\312V\273\024\232&\233\212}i\342a\350e\224\274\214\220\027]e\006%\375\235f\24066;\224\272\235_@\255\"{\222\214\222\t_\332&\r\216\305\276m\036\034\036\\\032r\2424\344\n\221 \363\324[\025\210\363\322\340Ys \276\241i,\207\013HKnt\2525;g\267\353n\260\273\301\245w\353\270\206\336\270J\252#\360e^\232j\030c?\26495\337U]YN\3111NL\267>\013<B%k\256\266!\024\215\220\356\266\005\223\326\266f\265\366\232&\202\307:\r8\315\2230\315?\021{\357\"\023Z\304`\221`\273\210\263w\221\247ZD\337\205l(\222\272u\230/"
	.ascii	"QC\027\357\036e\312\341\363\352\246b\tz\206J\252\\s9;\260}!f"
	.ascii	"26\311\230\265\033f16\305\230\275\033f3\366\2341\207\260\346"
	.ascii	"^j\3760\227\350\222\013\242?\257-\254\351Sv\020\264\034\302\013"
	.ascii	"\252\357\357\021i*J\240X\206\255\213\316d\226?\330\336\272r|"
	.ascii	"\351\246\270\371\230\206\267c#\232\342\206b\006\036\255\177\355"
	.ascii	"\353h\211zg}\231\317^hy\026\036i\322N\377r\346\247\376!s!\360"
	.ascii	"\022E\276\334Oy\263\363:-\303\304\\]\f:\315\352\021\225\240\346"
	.ascii	"\233\002\257P-V`\204\277y\202\322\323\255\245\250\240\366L\254"
	.ascii	"\256\341Tmyc\354\364\211\332\306\212c\"\257\242\276\256\241\346"
	.ascii	"x\2541Vs\322\375?\257\257\250\372\003\301E@\212"
	.text
	.section	.gnu.offload_lto_.symbol_nodes.e9ef73599697469e,"e",@progbits
	.string	"x\234cc``("
	.string	"b\006&\345z\006\206\t\347\030\030\200\324\216\005\007\033\330\201BJ\365\214hB\214\252\365L`!\006\206\206\006\007 _\245\236\031\205\257V\317\202\314g\006\302%\017\37712301\034\001\321\214,\fK\332\337\3103"
	.string	""
	.ascii	"*S\033\374"
	.text
	.section	.gnu.offload_lto_.refs.e9ef73599697469e,"e",@progbits
	.string	"x\234cc```\003bFF&\006^\006"
	.string	""
	.string	"\313"
	.ascii	"\036"
	.text
	.section	.gnu.offload_lto_.offload_table.e9ef73599697469e,"e",@progbits
	.string	"x\234cc```\006bFF\006"
	.string	""
	.string	"g"
	.ascii	"\f"
	.text
	.section	.gnu.offload_lto_.decls.e9ef73599697469e,"e",@progbits
	.ascii	"x\234\225V[LTG\030>\377\316\302.\353\336\004\333\372@\023bH$"
	.ascii	"M\272\225\366\305\244/\215>\370\202m\243\351C\243\311f\205\325"
	.ascii	"j\326\205\300\322\313\333Y\252\024\273& \202\265\024\332\215"
	.ascii	"U\260\202\005\024\265\212\302A\345*\324\033R\360\006\202\250"
	.ascii	"@\245\260\b\nH\350?3\347\260{\2704\351I\276=3\377|\363_\276\177"
	.ascii	"vv\303\005A(\214\020\204\365 \b\037!f\361!h;\217\320 .#Z\005"
	.ascii	"\376\204!\332\021\235\210\307\210A\304\013a\341\363\033\3721"
	.ascii	"\341{+\"\022\261B\366\263\005\261\031\221\200\030G|\216\330\210"
	.ascii	"\250FL \372\020Z\304ED\r\242\026!!\210\034wP\216;\377\251\304"
	.ascii	"x\313\347\305k\225\343Q\337\233\020v9\366+\304jD\213\234\307"
	.ascii	"k\304(b\0061\206\320#\232\020\315\210\006D\343\022\371t\312\265"
	.ascii	"\267/\222O\036\201\202\352\027-a>\002\221\006\320\343\364\334"
	.ascii	"p\3519\023NW\030@\242\313\267FZ\213\226\361e+No\356\251($|\252"
	.ascii	"\305\351h[A\237\231\263cp:#\346\0352\023\r\320\215\205\231'\372"
	.ascii	"\t\321\262q\317\376\263'M$\234\215\377,9\226g z6\226\002\231"
	.ascii	"\263\032b`c\305U$w\365\373\263\332B\003\367,j\362Hx\313d\326"
	.ascii	"f\210\212\215\213\215\215= \212Yb\216(\212\260R\200\013\020\r"
	.ascii	"\347!Z\200K\020\007\325\020%\b A,\324\"j\020\027!\226\025z\004"
	.ascii	"\351\242\324x\305<\215\243}:\330l\200* t\003\234F"
	.string	"\017\247\250\207J\374\020\240\202~\n\305\242\270G\224&n\023\321\257g\254?\200(\242\241\207\fQ\352\270b\312\025\245\303k!\301\bgdW\270\027\312\203\256\342\243\347\330\355\3074\342\325:B\311g\347\223\337\013\206\345\344\253G\347\310\347\026%3\307(Rmf\366u\235\311G7\3713\304\345\336x\025W\200:0\311]\256j\312\355Y\24603\226d\302e0!\373Bue\247\201\274C\373\022\236_+U\033 .\n\205\217\345\252\fsU\352\321\301\225\240*\213w\345*v\245\236u\245\t\273\321\214h@4\006\273\202\345\346@\326\267:\330b\024\230\313\2455\374O^\250~\035\247-\2745\233\214\254\313\365\213\013\310\311X\r'/p\034\322\027\324\244\2624'\"J.2\353\377\024\211{\033\016\314\224ZT}jQ\251\177m\256Ou\331\317\374\026U\237\026eB+\353\323\211\227\201.c7<\240]"
	.ascii	"\253U\260\002>l\235\276\025\260\233\222= \333\005\320\360\227"
	.ascii	"L\005\376\t!c\\\323\310\3735\314#\007\337\306\354\241^\005\331"
	.ascii	",\004]0\276\206\355\023xJJb\300\\#I\355!4\007\234/HZ\265*\363"
	.ascii	"\231g\215\254\335T\343\224\266\007\036\262\333\344\256\364\264"
	.ascii	"OG\326\262\361p\306\330\240\231$\260\361\245\256\206\232p-\246"
	.ascii	"u\203\235\\z\321\224MW\030\320\"\340\001\200]Zj\232\316/\253"
	.ascii	"\262\254<D\257\214\021\257\210\242n}\023>\210\2065\264\001\267"
	.ascii	"\261\363\002\334\002-\337]\235yf\\\277\312/J=\242\024\030\203"
	.ascii	"\214\375\370\r\261R\022\\g\001\340&h\371\020\332\240\033\363"
	.ascii	"n\207U\270-\273\250fXG\354,\245\361\300\017G-$\215\215\233\233"
	.ascii	"r\253\2144\275\016%\275\246\262\031\257Y\0160\250\np\207\007"
	.ascii	"\370\013\003\334\t\t\320\311\002x\017^\3535\223}\300\274\236"
	.ascii	"\314\230\256\327\223B>\t<\274\177\234\205\270\253\204h+\037\360"
	.ascii	"\205\223#|\271j\350\340Oat\371>.\303=`\202Tx\245\022\023)\341"
	.ascii	"\214\313\367\372\237\352(\343!e<\340\214\354\375\247\353\"H9"
	.ascii	"g\344\034\353\355\016\267\225\211\374\321g\351\004\350\221/\n"
	.ascii	"\\\375\261\250\321\027A\23295\277rh@\037*5^\314\212\324}L\352"
	.ascii	"]\262\322\345%\322\210\021\205\030\361\213\376lq\235WD%*\t%A"
	.ascii	"/~\307\037\201\r\311\335(F\027\017\005\217\231\020\017\352\363"
	.ascii	"\216\033\311\223\245jW\227\373\204\027\243\256\360)7\372}\201"
	.ascii	"\026=\231\342\216r\313fF\347%#\311\311\f\314%\363\f\223\351\227"
	.ascii	"\223\031d\311\334\237\230-5\223\303\374\007\362\306\336_\263"
	.ascii	"\211\022\205%s\260#\377\200\205\024\363\345\340\271\\m\220\317"
	.ascii	"\345\243\222\376t\3052\314\263\352\365\035\037\210PN\357?\334"
	.ascii	"6;\231\363\241\361\373\220\313\206\236\226\340\0252\nF\271\023"
	.ascii	"m?O\215\352\330f\264\301\b\337-\356m/\202%\016\377\030\353H@"
	.ascii	"9\374\276\241\033\315\032T\241'D\205.BY\360|N\205\277Q\205!Y"
	.ascii	"\205\027L\205\023\275\247\356\202\222 \273\3436.\013\311/\201"
	.ascii	"\245\007\343`\244G\367\320\363\3210U1}\252b&x1\364M\013\252\277"
	.ascii	"}XGj\230\200\332\351\361\311N\013DD\003\222!\356;\352b\304\233"
	.ascii	"c\305\257\b/\007\246\361\332~\005\370\217\022&\2212\205\376\n"
	.ascii	"D=\263\024\340\r\217\245\323a\261r\212\005:\205\227\301\037<"
	.ascii	":\307\230\305\327}u\352\f\307T\031\276\2263|\3152\374\345q\307"
	.ascii	"s\263\212\255\376\035\236\221\331\364\rn\330\006\016H4\331\222"
	.ascii	"w\247\330\223\034\036\207=\315\366\376r\347\327\216\335).\347"
	.ascii	"\273\036G\352\016\247\307\226(\204\254{l\361Q_:\023\035II;R\322"
	.ascii	"mvj\337\356\266\305G\342 &\311\231\350r\244:c\370\276Ehk\336"
	.ascii	"\2404\276\034\343t{R\277II\336\351\366\320\315v4\331=_\244:\035"
	.ascii	"Ivw\372\356\260\304dw\232G\353r:\266\353\334\311hO\376\312:?"
	.ascii	"-\375\206\217?\213Y\037\037/D\333\355\333\322w\272<;\335\366"
	.ascii	"\205\236\242\024\023\216es\332\333\0137\204\254\2326|\262\361"
	.ascii	"S{\212#\325\341r9]o\005\271*{\230}]r\262\353_O\0073\306"
	.text
	.section	.gnu.offload_lto_.symtab.e9ef73599697469e,"e",@progbits
	.text
	.section	.gnu.offload_lto_.opts,"e",@progbits
	.string	"'-fno-math-errno' '-fno-signed-zeros' '-fno-trapping-math' '-fno-trapv' '-fno-openacc' '-foffload-abi=lp64' '-Ofast' '-fopenmp' '-foffload=-march=knl'"
	.text
	.section	.gnu.offload_lto_.mode_table.e9ef73599697469e,"e",@progbits
	.string	"x\234cc``\220\002b\036 \356?\322\320\321\260\247C`bK\323\202\206#\035\001\223ZZ\0164\234\350\230\300\314\300\034\350\311\300\034\f\304.\236\f"
	.ascii	"p\311\0178"
	.text
	.p2align 4,,15
	.type	vecaddgpu._omp_fn.1, @function
vecaddgpu._omp_fn.1:
.LFB32:
	.cfi_startproc
	pushq	%r14
	.cfi_def_cfa_offset 16
	.cfi_offset 14, -16
	pushq	%r13
	.cfi_def_cfa_offset 24
	.cfi_offset 13, -24
	pushq	%r12
	.cfi_def_cfa_offset 32
	.cfi_offset 12, -32
	pushq	%rbp
	.cfi_def_cfa_offset 40
	.cfi_offset 6, -40
	pushq	%rbx
	.cfi_def_cfa_offset 48
	.cfi_offset 3, -48
	movq	%rdi, %rbx
	call	omp_get_num_threads
	movl	%eax, %ebp
	call	omp_get_thread_num
	movl	%eax, %ecx
	movl	24(%rbx), %eax
	cltd
	idivl	%ebp
	cmpl	%edx, %ecx
	jge	.L11
	addl	$1, %eax
	xorl	%edx, %edx
.L11:
	imull	%eax, %ecx
	addl	%ecx, %edx
	addl	%edx, %eax
	cmpl	%eax, %edx
	jge	.L1
	movq	(%rbx), %r8
	movq	16(%rbx), %r9
	movslq	%edx, %rsi
	leaq	16(,%rsi,4), %rcx
	salq	$2, %rsi
	movq	8(%rbx), %r10
	movl	%eax, %ebp
	leaq	(%r9,%rcx), %r12
	leaq	(%r8,%rsi), %rdi
	leaq	(%r8,%rcx), %r13
	leaq	(%r9,%rsi), %rbx
	subl	%edx, %ebp
	leaq	(%r10,%rsi), %r11
	cmpq	%r12, %rdi
	setnb	%r14b
	cmpq	%r13, %rbx
	setnb	%r12b
	addq	%r10, %rcx
	orl	%r14d, %r12d
	cmpq	%rcx, %rdi
	setnb	%cl
	cmpq	%r11, %r13
	setbe	%r13b
	orl	%r13d, %ecx
	testb	%cl, %r12b
	je	.L4
	cmpl	$8, %ebp
	jbe	.L4
	movq	%r11, %rcx
	shrq	$2, %rcx
	negq	%rcx
	andl	$3, %ecx
	je	.L5
	movss	(%r11), %xmm0
	cmpl	$1, %ecx
	addss	(%rbx), %xmm0
	movss	%xmm0, (%rdi)
	leal	1(%rdx), %edi
	je	.L13
	movslq	%edi, %rdi
	cmpl	$3, %ecx
	movss	(%r10,%rdi,4), %xmm0
	addss	(%r9,%rdi,4), %xmm0
	movss	%xmm0, (%r8,%rdi,4)
	leal	2(%rdx), %edi
	jne	.L13
	movslq	%edi, %rdi
	addl	$3, %edx
	movss	(%r10,%rdi,4), %xmm0
	addss	(%r9,%rdi,4), %xmm0
	movss	%xmm0, (%r8,%rdi,4)
.L5:
	subl	%ecx, %ebp
	movl	%ecx, %ecx
	leaq	(%rsi,%rcx,4), %rdi
	movl	%ebp, %r12d
	xorl	%ecx, %ecx
	shrl	$2, %r12d
	xorl	%esi, %esi
	leaq	(%r10,%rdi), %rbx
	leaq	(%r9,%rdi), %r11
	addq	%r8, %rdi
	.p2align 4,,10
	.p2align 3
.L7:
	movups	(%r11,%rcx), %xmm0
	addl	$1, %esi
	addps	(%rbx,%rcx), %xmm0
	movups	%xmm0, (%rdi,%rcx)
	addq	$16, %rcx
	cmpl	%esi, %r12d
	ja	.L7
	movl	%ebp, %ecx
	andl	$-4, %ecx
	addl	%ecx, %edx
	cmpl	%ecx, %ebp
	je	.L1
	movslq	%edx, %rcx
	movss	(%r10,%rcx,4), %xmm0
	addss	(%r9,%rcx,4), %xmm0
	movss	%xmm0, (%r8,%rcx,4)
	leal	1(%rdx), %ecx
	cmpl	%ecx, %eax
	jle	.L1
	movslq	%ecx, %rcx
	movss	(%r10,%rcx,4), %xmm0
	addss	(%r9,%rcx,4), %xmm0
	movss	%xmm0, (%r8,%rcx,4)
	leal	2(%rdx), %ecx
	cmpl	%ecx, %eax
	jle	.L1
	movslq	%ecx, %rcx
	movss	(%r10,%rcx,4), %xmm0
	addss	(%r9,%rcx,4), %xmm0
	movss	%xmm0, (%r8,%rcx,4)
	leal	3(%rdx), %ecx
	cmpl	%ecx, %eax
	jle	.L1
	movslq	%ecx, %rcx
	movss	(%r10,%rcx,4), %xmm0
	addss	(%r9,%rcx,4), %xmm0
	movss	%xmm0, (%r8,%rcx,4)
	leal	4(%rdx), %ecx
	cmpl	%ecx, %eax
	jle	.L1
	movslq	%ecx, %rcx
	addl	$5, %edx
	movss	(%r10,%rcx,4), %xmm0
	cmpl	%edx, %eax
	addss	(%r9,%rcx,4), %xmm0
	movss	%xmm0, (%r8,%rcx,4)
	jle	.L1
	movslq	%edx, %rax
	movss	(%r10,%rax,4), %xmm0
	addss	(%r9,%rax,4), %xmm0
	movss	%xmm0, (%r8,%rax,4)
.L1:
	popq	%rbx
	.cfi_remember_state
	.cfi_def_cfa_offset 40
	popq	%rbp
	.cfi_def_cfa_offset 32
	popq	%r12
	.cfi_def_cfa_offset 24
	popq	%r13
	.cfi_def_cfa_offset 16
	popq	%r14
	.cfi_def_cfa_offset 8
	ret
	.p2align 4,,10
	.p2align 3
.L13:
	.cfi_restore_state
	movl	%edi, %edx
	jmp	.L5
	.p2align 4,,10
	.p2align 3
.L4:
	leal	-1(%rbp), %eax
	leaq	4(,%rax,4), %rdx
	xorl	%eax, %eax
	.p2align 4,,10
	.p2align 3
.L9:
	movss	(%r11,%rax), %xmm0
	addss	(%rbx,%rax), %xmm0
	movss	%xmm0, (%rdi,%rax)
	addq	$4, %rax
	cmpq	%rdx, %rax
	jne	.L9
	popq	%rbx
	.cfi_def_cfa_offset 40
	popq	%rbp
	.cfi_def_cfa_offset 32
	popq	%r12
	.cfi_def_cfa_offset 24
	popq	%r13
	.cfi_def_cfa_offset 16
	popq	%r14
	.cfi_def_cfa_offset 8
	ret
	.cfi_endproc
.LFE32:
	.size	vecaddgpu._omp_fn.1, .-vecaddgpu._omp_fn.1
	.p2align 4,,15
	.type	vecaddgpu._omp_fn.0, @function
vecaddgpu._omp_fn.0:
.LFB31:
	.cfi_startproc
	subq	$40, %rsp
	.cfi_def_cfa_offset 48
	movq	(%rdi), %rax
	movq	8(%rdi), %rdx
	movdqu	16(%rdi), %xmm0
	movq	%rsp, %rsi
	movl	$vecaddgpu._omp_fn.1, %edi
	shufpd	$1, %xmm0, %xmm0
	movq	%rdx, 16(%rsp)
	xorl	%edx, %edx
	cmpl	$1000000, %eax
	movl	%eax, 24(%rsp)
	setle	%dl
	xorl	%ecx, %ecx
	movaps	%xmm0, (%rsp)
	call	GOMP_parallel
	addq	$40, %rsp
	.cfi_def_cfa_offset 8
	ret
	.cfi_endproc
.LFE31:
	.size	vecaddgpu._omp_fn.0, .-vecaddgpu._omp_fn.0
	.p2align 4,,15
	.globl	vecaddgpu
	.type	vecaddgpu, @function
vecaddgpu:
.LFB26:
	.cfi_startproc
	pushq	%r13
	.cfi_def_cfa_offset 16
	.cfi_offset 13, -16
	movslq	%ecx, %r13
	pushq	%r12
	.cfi_def_cfa_offset 24
	.cfi_offset 12, -24
	leaq	0(,%r13,4), %rax
	pushq	%rbp
	.cfi_def_cfa_offset 32
	.cfi_offset 6, -32
	pushq	%rbx
	.cfi_def_cfa_offset 40
	.cfi_offset 3, -40
	movq	%rdx, %r12
	movq	%rsi, %rbp
	subq	$168, %rsp
	.cfi_def_cfa_offset 208
	cmpq	$1, %rax
	movq	%rdi, (%rsp)
	movq	%rdx, 8(%rsp)
	sbbl	%edx, %edx
	movq	(%rsp), %xmm1
	andl	$13, %edx
	movdqa	%xmm1, %xmm0
	addw	$514, %dx
	cmpq	$1, %rax
	movq	%rax, 64(%rsp)
	movq	%rax, 72(%rsp)
	movq	%rax, 80(%rsp)
	sbbl	%eax, %eax
	movhps	8(%rsp), %xmm0
	movw	%dx, 26(%rsp)
	leaq	26(%rsp), %r8
	leaq	64(%rsp), %rcx
	leaq	32(%rsp), %rdx
	andl	$14, %eax
	movq	%rsi, 48(%rsp)
	addw	$513, %ax
	movl	$3, %esi
	movl	$-1, %edi
	movaps	%xmm0, 32(%rsp)
	movw	%ax, 28(%rsp)
	movw	%ax, 30(%rsp)
	call	GOMP_target_data_ext
	xorl	%edi, %edi
	cmpl	$1000000, %r13d
	movl	$.omp_data_kinds.7.3784, %r9d
	movq	(%rsp), %rax
	movq	%r13, 128(%rsp)
	setg	%dil
	movdqa	.LC0(%rip), %xmm0
	subq	$8, %rsp
	.cfi_def_cfa_offset 216
	movq	%r12, 144(%rsp)
	movq	%rbp, 152(%rsp)
	subl	$2, %edi
	movaps	%xmm0, 104(%rsp)
	movq	%rax, 160(%rsp)
	movq	$0, 120(%rsp)
	leaq	104(%rsp), %rax
	movl	$.omp_data_sizes.6.3783, %r8d
	movl	$4, %edx
	movl	$vecaddgpu._omp_fn.0, %esi
	pushq	%rax
	.cfi_def_cfa_offset 224
	pushq	$0
	.cfi_def_cfa_offset 232
	pushq	$0
	.cfi_def_cfa_offset 240
	leaq	160(%rsp), %rcx
	call	GOMP_target_ext
	addq	$32, %rsp
	.cfi_def_cfa_offset 208
	call	GOMP_target_end_data
	addq	$168, %rsp
	.cfi_def_cfa_offset 40
	popq	%rbx
	.cfi_def_cfa_offset 32
	popq	%rbp
	.cfi_def_cfa_offset 24
	popq	%r12
	.cfi_def_cfa_offset 16
	popq	%r13
	.cfi_def_cfa_offset 8
	ret
	.cfi_endproc
.LFE26:
	.size	vecaddgpu, .-vecaddgpu
	.section	.rodata.str1.1,"aMS",@progbits,1
.LC1:
	.string	"Inicializando os arrays.\n"
	.text
	.p2align 4,,15
	.globl	init_array
	.type	init_array, @function
init_array:
.LFB27:
	.cfi_startproc
	subq	$8, %rsp
	.cfi_def_cfa_offset 16
	movq	stdout(%rip), %rcx
	movl	$25, %edx
	movl	$1, %esi
	movl	$.LC1, %edi
	call	fwrite
	movaps	.LC2(%rip), %xmm0
	xorl	%eax, %eax
	.p2align 4,,10
	.p2align 3
.L34:
	addq	$16, %rax
	movaps	%xmm0, h_a-16(%rax)
	movaps	%xmm0, h_b-16(%rax)
	cmpq	$4194304, %rax
	jne	.L34
	addq	$8, %rsp
	.cfi_def_cfa_offset 8
	ret
	.cfi_endproc
.LFE27:
	.size	init_array, .-init_array
	.section	.rodata.str1.1
.LC3:
	.string	"h_c[%07d]: %f\n"
	.text
	.p2align 4,,15
	.globl	print_array
	.type	print_array, @function
print_array:
.LFB28:
	.cfi_startproc
	pushq	%rbx
	.cfi_def_cfa_offset 16
	.cfi_offset 3, -16
	xorl	%ebx, %ebx
	.p2align 4,,10
	.p2align 3
.L38:
	pxor	%xmm0, %xmm0
	movq	stdout(%rip), %rdi
	movl	%ebx, %edx
	movl	$.LC3, %esi
	movl	$1, %eax
	cvtss2sd	h_c(,%rbx,4), %xmm0
	addq	$1, %rbx
	call	fprintf
	cmpq	$1048576, %rbx
	jne	.L38
	popq	%rbx
	.cfi_def_cfa_offset 8
	ret
	.cfi_endproc
.LFE28:
	.size	print_array, .-print_array
	.section	.rodata.str1.1
.LC4:
	.string	"Verificando o resultado.\n"
.LC6:
	.string	"Resultado Final: (%f, %f)\n"
	.text
	.p2align 4,,15
	.globl	check_result
	.type	check_result, @function
check_result:
.LFB29:
	.cfi_startproc
	subq	$8, %rsp
	.cfi_def_cfa_offset 16
	movq	stdout(%rip), %rcx
	movl	$25, %edx
	movl	$1, %esi
	movl	$.LC4, %edi
	call	fwrite
	pxor	%xmm0, %xmm0
	movl	$h_c, %eax
	movl	$h_c+4194304, %edx
	.p2align 4,,10
	.p2align 3
.L42:
	addps	(%rax), %xmm0
	addq	$16, %rax
	cmpq	%rax, %rdx
	jne	.L42
	movaps	%xmm0, %xmm1
	movq	stdout(%rip), %rdi
	movl	$.LC6, %esi
	movl	$2, %eax
	movhlps	%xmm0, %xmm1
	addps	%xmm0, %xmm1
	movaps	%xmm1, %xmm0
	shufps	$85, %xmm1, %xmm0
	addps	%xmm1, %xmm0
	movss	.LC5(%rip), %xmm1
	addq	$8, %rsp
	.cfi_def_cfa_offset 8
	mulss	%xmm0, %xmm1
	cvtss2sd	%xmm0, %xmm0
	cvtss2sd	%xmm1, %xmm1
	jmp	fprintf
	.cfi_endproc
.LFE29:
	.size	check_result, .-check_result
	.section	.text.startup,"ax",@progbits
	.p2align 4,,15
	.globl	main
	.type	main, @function
main:
.LFB30:
	.cfi_startproc
	subq	$8, %rsp
	.cfi_def_cfa_offset 16
	xorl	%eax, %eax
	call	init_array
	movl	$1048576, %ecx
	movl	$h_b, %edx
	movl	$h_a, %esi
	movl	$h_c, %edi
	call	vecaddgpu
	xorl	%eax, %eax
	call	check_result
	xorl	%eax, %eax
	addq	$8, %rsp
	.cfi_def_cfa_offset 8
	ret
	.cfi_endproc
.LFE30:
	.size	main, .-main
	.data
	.align 8
	.type	.omp_data_kinds.7.3784, @object
	.size	.omp_data_kinds.7.3784, 8
.omp_data_kinds.7.3784:
	.value	525
	.value	15
	.value	15
	.value	15
	.local	.omp_data_sizes.6.3783
	.comm	.omp_data_sizes.6.3783,32,32
	.comm	h_c,4194304,32
	.comm	h_b,4194304,32
	.comm	h_a,4194304,32
	.section	.gnu.offload_vars,"aw",@progbits
	.align 8
	.type	.offload_var_table, @object
	.size	.offload_var_table, 0
.offload_var_table:
	.section	.gnu.offload_funcs,"aw",@progbits
	.align 8
	.type	.offload_func_table, @object
	.size	.offload_func_table, 8
.offload_func_table:
	.quad	vecaddgpu._omp_fn.0
	.section	.rodata.cst16,"aM",@progbits,16
	.align 16
.LC0:
	.quad	65792
	.quad	512
	.align 16
.LC2:
	.long	1056964608
	.long	1056964608
	.long	1056964608
	.long	1056964608
	.section	.rodata.cst4,"aM",@progbits,4
	.align 4
.LC5:
	.long	897581056
	.comm	__gnu_lto_v1,1,1
	.ident	"GCC: (GNU) 7.2.0"
	.section	.note.GNU-stack,"",@progbits
